; ModuleID = 'source-C-CXX/25/1261.c'
source_filename = "source-C-CXX/25/1261.c"
target datalayout = "e-m:e-p270:32:32-p271:32:32-p272:64:64-i64:64-f80:128-n8:16:32:64-S128"
target triple = "x86_64-pc-linux-gnu"

; Function Attrs: nounwind sspstrong uwtable
define dso_local i32 @main() local_unnamed_addr #0 {
  %1 = alloca [101 x i8], align 16
  %2 = alloca [101 x i8], align 16
  %3 = getelementptr inbounds [101 x i8], [101 x i8]* %1, i64 0, i64 0
  call void @llvm.lifetime.start.p0i8(i64 101, i8* nonnull %3) #6
  %4 = getelementptr inbounds [101 x i8], [101 x i8]* %2, i64 0, i64 0
  call void @llvm.lifetime.start.p0i8(i64 101, i8* nonnull %4) #6
  %5 = call i32 (i8*, ...) bitcast (i32 (...)* @gets to i32 (i8*, ...)*)(i8* nonnull %3) #6
  %6 = call i64 @strlen(i8* noundef nonnull %3) #7
  %7 = trunc i64 %6 to i32
  %8 = add i32 %7, -1
  %9 = icmp sgt i32 %7, 1
  br i1 %9, label %10, label %36

10:                                               ; preds = %0
  %11 = zext i32 %8 to i64
  br label %12

12:                                               ; preds = %10, %32
  %13 = phi i64 [ 0, %10 ], [ %33, %32 ]
  %14 = phi i32 [ 0, %10 ], [ %34, %32 ]
  %15 = getelementptr inbounds [101 x i8], [101 x i8]* %1, i64 0, i64 %13
  %16 = load i8, i8* %15, align 1, !tbaa !5
  %17 = icmp eq i8 %16, 32
  br i1 %17, label %23, label %18

18:                                               ; preds = %12
  %19 = sext i32 %14 to i64
  %20 = getelementptr inbounds [101 x i8], [101 x i8]* %2, i64 0, i64 %19
  store i8 %16, i8* %20, align 1, !tbaa !5
  %21 = add nsw i32 %14, 1
  %22 = add nuw nsw i64 %13, 1
  br label %32

23:                                               ; preds = %12
  %24 = add nuw nsw i64 %13, 1
  %25 = getelementptr inbounds [101 x i8], [101 x i8]* %1, i64 0, i64 %24
  %26 = load i8, i8* %25, align 1, !tbaa !5
  %27 = icmp eq i8 %26, 32
  br i1 %27, label %32, label %28

28:                                               ; preds = %23
  %29 = sext i32 %14 to i64
  %30 = getelementptr inbounds [101 x i8], [101 x i8]* %2, i64 0, i64 %29
  store i8 32, i8* %30, align 1, !tbaa !5
  %31 = add nsw i32 %14, 1
  br label %32

32:                                               ; preds = %18, %28, %23
  %33 = phi i64 [ %22, %18 ], [ %24, %28 ], [ %24, %23 ]
  %34 = phi i32 [ %21, %18 ], [ %31, %28 ], [ %14, %23 ]
  %35 = icmp eq i64 %33, %11
  br i1 %35, label %36, label %12, !llvm.loop !8

36:                                               ; preds = %32, %0
  %37 = phi i32 [ 0, %0 ], [ %34, %32 ]
  %38 = sext i32 %8 to i64
  %39 = getelementptr inbounds [101 x i8], [101 x i8]* %1, i64 0, i64 %38
  %40 = load i8, i8* %39, align 1, !tbaa !5
  %41 = sext i32 %37 to i64
  %42 = getelementptr inbounds [101 x i8], [101 x i8]* %2, i64 0, i64 %41
  store i8 %40, i8* %42, align 1, !tbaa !5
  %43 = icmp slt i32 %37, 100
  br i1 %43, label %44, label %50

44:                                               ; preds = %36
  %45 = add nsw i64 %41, 1
  %46 = getelementptr [101 x i8], [101 x i8]* %2, i64 0, i64 %45
  %47 = sub i32 99, %37
  %48 = zext i32 %47 to i64
  %49 = add nuw nsw i64 %48, 1
  call void @llvm.memset.p0i8.i64(i8* noundef nonnull align 1 dereferenceable(1) %46, i8 0, i64 %49, i1 false)
  br label %50

50:                                               ; preds = %44, %36
  %51 = call i32 @puts(i8* nonnull %4)
  call void @llvm.lifetime.end.p0i8(i64 101, i8* nonnull %4) #6
  call void @llvm.lifetime.end.p0i8(i64 101, i8* nonnull %3) #6
  ret i32 0
}

; Function Attrs: argmemonly mustprogress nofree nosync nounwind willreturn
declare void @llvm.lifetime.start.p0i8(i64 immarg, i8* nocapture) #1

declare i32 @gets(...) local_unnamed_addr #2

; Function Attrs: argmemonly mustprogress nofree nounwind readonly willreturn
declare i64 @strlen(i8* nocapture) local_unnamed_addr #3

; Function Attrs: argmemonly mustprogress nofree nosync nounwind willreturn
declare void @llvm.lifetime.end.p0i8(i64 immarg, i8* nocapture) #1

; Function Attrs: nofree nounwind
declare noundef i32 @puts(i8* nocapture noundef readonly) local_unnamed_addr #4

; Function Attrs: argmemonly nofree nounwind willreturn writeonly
declare void @llvm.memset.p0i8.i64(i8* nocapture writeonly, i8, i64, i1 immarg) #5


!llvm.module.flags = !{!0, !1, !2, !3}
!llvm.ident = !{!4}

!0 = !{i32 1, !"wchar_size", i32 4}
!1 = !{i32 7, !"PIC Level", i32 2}
!2 = !{i32 7, !"PIE Level", i32 2}
!3 = !{i32 7, !"uwtable", i32 1}
!4 = !{!"clang version 13.0.0"}
!5 = !{!6, !6, i64 0}
!6 = !{!"omnipotent char", !7, i64 0}
!7 = !{!"Simple C/C++ TBAA"}
!8 = distinct !{!8, !9}
!9 = !{!"llvm.loop.mustprogress"}
